; Function Attrs: nounwind sspstrong uwtable
define dso_local void @tcg_gen_qemu_st_i128_chk(ptr noundef %0, ptr noundef %1, i64 noundef %2, i32 noundef %3, i32 noundef %4) local_unnamed_addr #0 {
  %6 = tail call align 8 ptr @llvm.threadlocal.address.p0(ptr align 8 @tcg_ctx)
  %7 = load ptr, ptr %6, align 8
  %8 = getelementptr inbounds nuw i8, ptr %7, i64 60
  %9 = load i32, ptr %8, align 4
  %10 = icmp eq i32 %4, %9
  tail call void @llvm.assume(i1 %10)
  %11 = and i32 %3, 7
  %12 = icmp eq i32 %11, 4
  tail call void @llvm.assume(i1 %12)
  %13 = and i32 %3, 8
  %14 = icmp eq i32 %13, 0
  tail call void @llvm.assume(i1 %14)
  tail call fastcc void @tcg_gen_qemu_st_i128_int(ptr noundef %0, ptr noundef %1, i64 noundef %2, i32 noundef %3)
  ret void
}